(lp0
(dp1
S'lcs_score'
p2
F0.3934729744390571
sS'unigram'
p3
F-4.804021044733257
sS'bigram_recall'
p4
F0.00411522633744856
sS'trigram_recall'
p5
F0.004132231404958678
sS'skip_bigrams_stats'
p6
F0.01404396303566856
sS'bigram_precision'
p7
F-0.0022522522522522522
sS'trigram'
p8
F-5.26200673807683
sS'trigram_precision'
p9
F-0.0003332222592469177
sS'unigram_precision'
p10
F0.000946521533364884
sS'file'
p11
S'grammys_hyd.txt'
p12
sS'bigram'
p13
F-5.1485412440369025
sS'unigram_recall'
p14
F0.00819672131147541
sa.