(lp0
(dp1
S'lcs_score'
p2
F0.32355426183758884
sS'unigram'
p3
F-6.089044875446846
sS'bigram_recall'
p4
F0.0011350737797956867
sS'trigram_recall'
p5
F0.0011363636363636363
sS'skip_bigrams_stats'
p6
F0.015692272365691044
sS'bigram_precision'
p7
F-0.0022522522522522522
sS'trigram'
p8
F-6.5500081362850935
sS'trigram_precision'
p9
F-0.0003332222592469177
sS'unigram_precision'
p10
F0.000946521533364884
sS'file'
p11
S'grammys_cluster.txt'
p12
sS'bigram'
p13
F-6.435051250691513
sS'unigram_recall'
p14
F0.0022675736961451248
sa.