(lp0
(dp1
S'lcs_score'
p2
F0.5995239335285176
sS'unigram'
p3
F-6.066108090103747
sS'bigram_recall'
p4
F0.002325581395348837
sS'trigram_recall'
p5
F0.002331002331002331
sS'skip_bigrams_stats'
p6
F0.007212089630015634
sS'bigram_precision'
p7
F-0.0022522522522522522
sS'trigram'
p8
F-6.063783405906457
sS'trigram_precision'
p9
F-0.0003332222592469177
sS'unigram_precision'
p10
F0.000473260766682442
sS'file'
p11
S'grammys_retweet.txt'
p12
sS'bigram'
p13
F-6.064946649395678
sS'unigram_recall'
p14
F0.002320185614849188
sa.