(lp0
(dp1
S'lcs_score'
p2
F0.27652691579438826
sS'unigram'
p3
F-5.4680601411351315
sS'bigram_recall'
p4
F0.00423728813559322
sS'trigram_recall'
p5
F0.00425531914893617
sS'skip_bigrams_stats'
p6
F0.020704343949675564
sS'bigram_precision'
p7
F-0.0017889087656529517
sS'trigram'
p8
F-5.463825820101634
sS'trigram_precision'
p9
F-0.0002452182442373713
sS'unigram_precision'
p10
F0.00033783783783783786
sS'file'
p11
S''
p12
sS'bigram'
p13
F-5.4659459730803714
sS'unigram_recall'
p14
F0.004219409282700422
sa.