(lp0
(dp1
S'lcs_score'
p2
F0.4790431545736175
sS'unigram'
p3
F-5.568344503761097
sS'bigram_recall'
p4
F0.0038314176245210726
sS'trigram_recall'
p5
F0.0038461538461538464
sS'skip_bigrams_stats'
p6
F0.03384456569827459
sS'bigram_precision'
p7
F-0.0026041666666666665
sS'trigram'
p8
F-5.564515514033105
sS'trigram_precision'
p9
F-0.0003205128205128205
sS'unigram_precision'
p10
F0.00042517006802721087
sS'file'
p11
S''
p12
sS'bigram'
p13
F-5.566432455541895
sS'unigram_recall'
p14
F0.003816793893129771
sa.