(lp0
(dp1
S'lcs_score'
p2
F0.43402727833256244
sS'unigram'
p3
F-5.303304908059076
sS'bigram_recall'
p4
F0.005
sS'trigram_recall'
p5
F0.005025125628140704
sS'skip_bigrams_stats'
p6
F0.09476192998252213
sS'bigram_precision'
p7
F-0.0026041666666666665
sS'trigram'
p8
F-5.298309033110535
sS'trigram_precision'
p9
F-0.0003205128205128205
sS'unigram_precision'
p10
F0.00042517006802721087
sS'file'
p11
S''
p12
sS'bigram'
p13
F-5.3008111373035565
sS'unigram_recall'
p14
F0.004975124378109453
sa.