(lp0
(dp1
S'lcs_score'
p2
F0.45824961424744987
sS'unigram'
p3
F-5.5053315359323625
sS'bigram_recall'
p4
F0.004081632653061225
sS'trigram_recall'
p5
F0.004098360655737705
sS'skip_bigrams_stats'
p6
F0.07033386879694352
sS'bigram_precision'
p7
F-0.005649717514124294
sS'trigram'
p8
F-5.501252657256764
sS'trigram_precision'
p9
F-0.0007052186177715092
sS'unigram_precision'
p10
F0.0009398496240601503
sS'file'
p11
S''
p12
sS'bigram'
p13
F-5.503294873238545
sS'unigram_recall'
p14
F0.0040650406504065045
sa.