(lp0
(dp1
S'lcs_score'
p2
F0.3725699053312648
sS'unigram'
p3
F-5.958424693029782
sS'bigram_recall'
p4
F0.0025906735751295338
sS'trigram_recall'
p5
F0.0025974025974025974
sS'skip_bigrams_stats'
p6
F0.005712323820686308
sS'bigram_precision'
p7
F-0.0013831258644536654
sS'trigram'
p8
F-5.955835132260799
sS'trigram_precision'
p9
F-0.0001646090534979424
sS'unigram_precision'
p10
F0.00021602937999567941
sS'file'
p11
S'uspresidentialelections_retweet.txt'
p12
sS'bigram'
p13
F-5.9571310312473065
sS'unigram_recall'
p14
F0.002583979328165375
sa.