(lp0
(dp1
S'lcs_score'
p2
F0.5254696647194265
sS'unigram'
p3
F-6.873163834212518
sS'bigram_recall'
p4
F0.0010362694300518134
sS'trigram_recall'
p5
F0.001037344398340249
sS'skip_bigrams_stats'
p6
F0.033085139934455006
sS'bigram_precision'
p7
F-0.0013831258644536654
sS'trigram'
p8
F-6.87212774338735
sS'trigram_precision'
p9
F-0.0001646090534979424
sS'unigram_precision'
p10
F0.00021602937999567941
sS'file'
p11
S'uspresidentialelections_cluster.txt'
p12
sS'bigram'
p13
F-6.872645967775751
sS'unigram_recall'
p14
F0.0010351966873706005
sa.