(lp0
(dp1
S'lcs_score'
p2
F0.3588235169459131
sS'unigram'
p3
F-5.0072963928307415
sS'bigram_recall'
p4
F0.003355704697986577
sS'trigram_recall'
p5
F0.003367003367003367
sS'skip_bigrams_stats'
p6
F0.018977921917550027
sS'bigram_precision'
p7
F-0.0013831258644536654
sS'trigram'
p8
F-5.466040672712949
sS'trigram_precision'
p9
F-0.0001646090534979424
sS'unigram_precision'
p10
F0.00043205875999135883
sS'file'
p11
S'uspresidentialelections_hyd.txt'
p12
sS'bigram'
p13
F-5.352194939668073
sS'unigram_recall'
p14
F0.006688963210702341
sa.